; Listing generated by Microsoft (R) Optimizing Compiler Version 19.24.28316.0 

	TITLE	C:\Users\DonutStopGaming\Desktop\Mod\pch.cpp
	.686P
	.XMM
	include listing.inc
	.model	flat

INCLUDELIB MSVCRTD
INCLUDELIB OLDNAMES

PUBLIC	___@@_PchSym_@00@UfhvihUwlmfghglktznrmtUwvhpglkUnlwUwvyftUkxsOlyq@4B2008FD98C1DD4
;	COMDAT ___@@_PchSym_@00@UfhvihUwlmfghglktznrmtUwvhpglkUnlwUwvyftUkxsOlyq@4B2008FD98C1DD4
_BSS	SEGMENT
___@@_PchSym_@00@UfhvihUwlmfghglktznrmtUwvhpglkUnlwUwvyftUkxsOlyq@4B2008FD98C1DD4 DD 01H DUP (?)
_BSS	ENDS
msvcjmc	SEGMENT
__6EE8A1C6_mod@pch DB 01H
__7242C389_ctype@h DB 01H
__90A1F774_basetsd@h DB 01H
__367CC694_corecrt_memcpy_s@h DB 01H
__35D7DDB3_corecrt_memory@h DB 01H
__DC9673E3_corecrt_wstring@h DB 01H
__A29A7DFB_string@h DB 01H
__3C23D660_guiddef@h DB 01H
__AF541008_winnt@h DB 01H
__0D001789_processthreadsapi@h DB 01H
__F972325D_memoryapi@h DB 01H
__76CD430D_winerror@h DB 01H
__737D49DB_winbase@h DB 01H
__1B9502AC_winuser@h DB 01H
__0396F1A5_stralign@h DB 01H
msvcjmc	ENDS
PUBLIC	__JustMyCode_Default
; Function compile flags: /Odt
;	COMDAT __JustMyCode_Default
_TEXT	SEGMENT
__JustMyCode_Default PROC				; COMDAT
  00000	55		 push	 ebp
  00001	8b ec		 mov	 ebp, esp
  00003	5d		 pop	 ebp
  00004	c3		 ret	 0
__JustMyCode_Default ENDP
_TEXT	ENDS
END
